target datalayout = "e-m:e-p270:32:32-p271:32:32-p272:64:64-i64:64-i128:128-f80:128-n8:16:32:64-S128"
target triple = "x86_64-pc-linux-gnu"

%struct.dt_noiseprofile_t = type { ptr, ptr, ptr, i32, [4 x i8], [4 x float], [4 x float] }

; Function Attrs: nounwind uwtable
define void @dt_noiseprofile_free(ptr noundef %0) #0 {
  %2 = alloca ptr, align 8
  %3 = alloca ptr, align 8
  store ptr %0, ptr %2, align 8, !tbaa !77
  call void @llvm.lifetime.start.p0(i64 8, ptr %3) #7
  %4 = load ptr, ptr %2, align 8, !tbaa !77
  store ptr %4, ptr %3, align 8, !tbaa !73
  %5 = load ptr, ptr %3, align 8, !tbaa !73
  %6 = getelementptr inbounds nuw %struct.dt_noiseprofile_t, ptr %5, i32 0, i32 0
  %7 = load ptr, ptr %6, align 16, !tbaa !69
  call void @g_free(ptr noundef %7)
  %8 = load ptr, ptr %3, align 8, !tbaa !73
  %9 = getelementptr inbounds nuw %struct.dt_noiseprofile_t, ptr %8, i32 0, i32 1
  %10 = load ptr, ptr %9, align 8, !tbaa !66
  call void @g_free(ptr noundef %10)
  %11 = load ptr, ptr %3, align 8, !tbaa !73
  %12 = getelementptr inbounds nuw %struct.dt_noiseprofile_t, ptr %11, i32 0, i32 2
  %13 = load ptr, ptr %12, align 16, !tbaa !68
  call void @g_free(ptr noundef %13)
  %14 = load ptr, ptr %3, align 8, !tbaa !73
  call void @free(ptr noundef %14) #7
  call void @llvm.lifetime.end.p0(i64 8, ptr %3) #7
  ret void
}