; Function Attrs: nounwind uwtable
define void @dt_noiseprofile_free(ptr noundef captures(none) %0) local_unnamed_addr #0 {
  %2 = load ptr, ptr %0, align 16, !tbaa !57
  tail call void @g_free(ptr noundef %2) #11
  %3 = getelementptr inbounds nuw i8, ptr %0, i64 8
  %4 = load ptr, ptr %3, align 8, !tbaa !54
  tail call void @g_free(ptr noundef %4) #11
  %5 = getelementptr inbounds nuw i8, ptr %0, i64 16
  %6 = load ptr, ptr %5, align 16, !tbaa !56
  tail call void @g_free(ptr noundef %6) #11
  tail call void @free(ptr noundef %0) #11
  ret void
}